; Function Attrs: mustprogress uwtable
define void @_ZN7xgboost4data21ExtMemQuantileDMatrix12InitFromCUDAEPKNS_7ContextESt10shared_ptrINS0_13DataIterProxyIFvPvEFiS7_EEEES7_RKNS_10BatchParamES5_INS_7DMatrixEElRKNS_12ExtMemConfigE(ptr noundef nonnull readnone align 8 captures(none) dereferenceable(520) %0, ptr noundef readnone captures(none) %1, ptr noundef readnone captures(none) %2, ptr noundef readnone captures(none) %3, ptr noundef nonnull readnone align 8 captures(none) dereferenceable(48) %4, ptr noundef readnone captures(none) %5, i64 noundef %6, ptr noundef nonnull readnone align 8 captures(none) dereferenceable(68) %7) local_unnamed_addr #3 align 2 personality ptr @__gxx_personality_v0 {
  %9 = alloca %"class.dmlc::LogMessageFatal", align 1
  call void @llvm.lifetime.start.p0(i64 1, ptr nonnull %9) #15
  %10 = call noundef nonnull align 8 dereferenceable(376) ptr @_ZN4dmlc15LogMessageFatal8GetEntryEv(ptr noundef nonnull align 1 dereferenceable(1) %9)
  call void @_ZN4dmlc15LogMessageFatal5Entry4InitEPKci(ptr noundef nonnull align 8 dereferenceable(376) %10, ptr noundef nonnull @.str.20, i32 noundef 168)
  %11 = invoke noundef nonnull align 8 dereferenceable(376) ptr @_ZN4dmlc15LogMessageFatal8GetEntryEv(ptr noundef nonnull align 1 dereferenceable(1) %9)
          to label %_ZN4dmlc15LogMessageFatal6streamB5cxx11Ev.exit.i unwind label %13

_ZN4dmlc15LogMessageFatal6streamB5cxx11Ev.exit.i: ; preds = %8
  %12 = invoke noundef nonnull align 8 dereferenceable(8) ptr @_ZSt16__ostream_insertIcSt11char_traitsIcEERSt13basic_ostreamIT_T0_ES6_PKS3_l(ptr noundef nonnull align 8 dereferenceable(8) %11, ptr noundef nonnull @.str.21, i64 noundef 46)
          to label %_ZN7xgboost6common16AssertGPUSupportEv.exit unwind label %13

13:                                               ; preds = %_ZN4dmlc15LogMessageFatal6streamB5cxx11Ev.exit.i, %8
  %14 = landingpad { ptr, i32 }
          cleanup
  invoke void @_ZN4dmlc15LogMessageFatalD2Ev(ptr noundef nonnull align 1 dereferenceable(1) %9)
          to label %15 unwind label %16

15:                                               ; preds = %13
  call void @llvm.lifetime.end.p0(i64 1, ptr nonnull %9) #15
  resume { ptr, i32 } %14

16:                                               ; preds = %13
  %17 = landingpad { ptr, i32 }
          catch ptr null
  %18 = extractvalue { ptr, i32 } %17, 0
  call void @__clang_call_terminate(ptr %18) #32
  unreachable

_ZN7xgboost6common16AssertGPUSupportEv.exit:      ; preds = %_ZN4dmlc15LogMessageFatal6streamB5cxx11Ev.exit.i
  call void @_ZN4dmlc15LogMessageFatalD2Ev(ptr noundef nonnull align 1 dereferenceable(1) %9)
  call void @llvm.lifetime.end.p0(i64 1, ptr nonnull %9) #15
  ret void
}